; Function Attrs: mustprogress nounwind uwtable
define dso_local noundef zeroext i1 @_ZNK5clang13CXXRecordDecl22isCurrentInstantiationEPKNS_11DeclContextE(ptr noundef nonnull align 8 dereferenceable(144) %0, ptr noundef %1) local_unnamed_addr #0 align 2 {
  %3 = getelementptr inbounds i8, ptr %0, i64 64
  br label %_ZNK5clang11DeclContext9getParentEv.exit

_ZNK5clang11DeclContext9getParentEv.exit:         ; preds = %_ZNK5clang11DeclContext9getParentEv.exit.backedge, %2
  %.0 = phi ptr [ %1, %2 ], [ %.0.be, %_ZNK5clang11DeclContext9getParentEv.exit.backedge ]
  %4 = getelementptr inbounds nuw i8, ptr %.0, i64 8
  %5 = load i16, ptr %4, align 8
  %6 = and i16 %5, 127
  switch i16 %6, label %7 [
    i16 21, label %20
    i16 0, label %20
  ]

7:                                                ; preds = %_ZNK5clang11DeclContext9getParentEv.exit
  %8 = tail call noundef ptr @_ZN5clang11DeclContext17getPrimaryContextEv(ptr noundef nonnull align 8 dereferenceable(32) %.0) #15
  %9 = tail call noundef ptr @_ZN5clang11DeclContext17getPrimaryContextEv(ptr noundef nonnull align 8 dereferenceable(32) %3) #15
  %10 = icmp eq ptr %8, %9
  br i1 %10, label %20, label %11

11:                                               ; preds = %7
  %12 = tail call noundef ptr @_ZN5clang4Decl19castFromDeclContextEPKNS_11DeclContextE(ptr noundef nonnull %.0) #15
  %13 = getelementptr inbounds nuw i8, ptr %12, i64 16
  %.0.copyload.i.i.i.i.i.i.i.i.i.i.i.i = load i64, ptr %13, align 8
  %14 = and i64 %.0.copyload.i.i.i.i.i.i.i.i.i.i.i.i, 4
  %15 = icmp eq i64 %14, 0
  %16 = and i64 %.0.copyload.i.i.i.i.i.i.i.i.i.i.i.i, -8
  %17 = inttoptr i64 %16 to ptr
  br i1 %15, label %_ZNK5clang11DeclContext9getParentEv.exit.backedge, label %18

_ZNK5clang11DeclContext9getParentEv.exit.backedge: ; preds = %11, %18
  %.0.be = phi ptr [ %19, %18 ], [ %17, %11 ]
  br label %_ZNK5clang11DeclContext9getParentEv.exit, !llvm.loop !13

18:                                               ; preds = %11
  %19 = load ptr, ptr %17, align 8
  br label %_ZNK5clang11DeclContext9getParentEv.exit.backedge

20:                                               ; preds = %_ZNK5clang11DeclContext9getParentEv.exit, %_ZNK5clang11DeclContext9getParentEv.exit, %7
  %21 = icmp ne i16 %6, 0
  %22 = icmp ne i16 %6, 21
  %spec.select.i.not = and i1 %21, %22
  ret i1 %spec.select.i.not
}